target datalayout = "e-m:e-p270:32:32-p271:32:32-p272:64:64-i64:64-i128:128-f80:128-n8:16:32:64-S128"
target triple = "x86_64-pc-linux-gnu"

%struct._object = type { i64, ptr }
%"struct.nanobind::dlpack::dtype" = type { i8, i8, i16 }
%"class.nanobind::handle" = type { ptr }
%"struct.nanobind::dlpack::dltensor" = type { ptr, %"struct.nanobind::dlpack::device", i32, %"struct.nanobind::dlpack::dtype", ptr, ptr, i64 }
%"struct.nanobind::dlpack::device" = type { i32, i32 }
%class.anon.341 = type { i8 }
%"struct.nanobind::detail::tuple.343" = type { %"struct.nanobind::detail::type_caster.344" }
%"struct.nanobind::detail::type_caster.344" = type { %"class.nanobind::ndarray.345" }
%"class.nanobind::ndarray.345" = type { ptr, %"struct.nanobind::dlpack::dltensor" }

@_Py_NoneStruct = external global %struct._object, align 8
@.str.89 = private unnamed_addr constant [4 x i8] c"cpu\00", align 1

; Function Attrs: inlinehint mustprogress nounwind optsize uwtable
define linkonce_odr hidden void @_ZN8nanobind6dlpack5dtypeC2Ev(ptr noundef nonnull align 2 dereferenceable(4) %0) unnamed_addr #11 comdat align 2 {
  %2 = alloca ptr, align 8
  store ptr %0, ptr %2, align 8, !tbaa !152
  %3 = load ptr, ptr %2, align 8
  %4 = getelementptr inbounds nuw %"struct.nanobind::dlpack::dtype", ptr %3, i32 0, i32 0
  store i8 0, ptr %4, align 2, !tbaa !154
  %5 = getelementptr inbounds nuw %"struct.nanobind::dlpack::dtype", ptr %3, i32 0, i32 1
  store i8 0, ptr %5, align 1, !tbaa !155
  %6 = getelementptr inbounds nuw %"struct.nanobind::dlpack::dtype", ptr %3, i32 0, i32 2
  store i16 0, ptr %6, align 2, !tbaa !156
  ret void
}

; Function Attrs: inlinehint mustprogress nounwind optsize uwtable
define linkonce_odr hidden void @_ZN8nanobind6dlpack6deviceC2Ev(ptr noundef nonnull align 4 dereferenceable(8) %0) unnamed_addr #11 comdat align 2 {
  %2 = alloca ptr, align 8
  store ptr %0, ptr %2, align 8, !tbaa !148
  %3 = load ptr, ptr %2, align 8
  %4 = getelementptr inbounds nuw %"struct.nanobind::dlpack::device", ptr %3, i32 0, i32 0
  store i32 0, ptr %4, align 4, !tbaa !150
  %5 = getelementptr inbounds nuw %"struct.nanobind::dlpack::device", ptr %3, i32 0, i32 1
  store i32 0, ptr %5, align 4, !tbaa !151
  ret void
}

; Function Attrs: mustprogress nounwind optsize uwtable
define linkonce_odr hidden void @_ZN8nanobind7ndarrayIJNS_6device3cpuEEEC2Ev(ptr noundef nonnull align 8 dereferenceable(56) %0) unnamed_addr #8 comdat align 2 {
  %2 = alloca ptr, align 8
  store ptr %0, ptr %2, align 8, !tbaa !470
  %3 = load ptr, ptr %2, align 8
  %4 = getelementptr inbounds nuw %"class.nanobind::ndarray.345", ptr %3, i32 0, i32 0
  store ptr null, ptr %4, align 8, !tbaa !472
  %5 = getelementptr inbounds nuw %"class.nanobind::ndarray.345", ptr %3, i32 0, i32 1
  call void @_ZN8nanobind6dlpack8dltensorC2Ev(ptr noundef nonnull align 8 dereferenceable(48) %5) #23
  ret void
}

; Function Attrs: inlinehint mustprogress nounwind optsize uwtable
define linkonce_odr hidden void @_ZN8nanobind6detail11type_casterINS_7ndarrayIJNS_6device3cpuEEEEiED2Ev(ptr noundef nonnull align 8 dereferenceable(56) %0) unnamed_addr #11 comdat align 2 {
  %2 = alloca ptr, align 8
  store ptr %0, ptr %2, align 8, !tbaa !468
  %3 = load ptr, ptr %2, align 8
  %4 = getelementptr inbounds nuw %"struct.nanobind::detail::type_caster.344", ptr %3, i32 0, i32 0
  call void @_ZN8nanobind7ndarrayIJNS_6device3cpuEEED2Ev(ptr noundef nonnull align 8 dereferenceable(56) %4) #23
  ret void
}

; Function Attrs: inlinehint mustprogress nounwind optsize uwtable
define internal void @_ZL10_Py_INCREFP7_object(ptr noundef %0) #11 {
  %2 = alloca ptr, align 8
  store ptr %0, ptr %2, align 8, !tbaa !3
  %3 = load ptr, ptr %2, align 8, !tbaa !3
  %4 = getelementptr inbounds nuw %struct._object, ptr %3, i32 0, i32 0
  %5 = load i64, ptr %4, align 8, !tbaa !23
  %6 = add nsw i64 %5, 1
  store i64 %6, ptr %4, align 8, !tbaa !23
  ret void
}

; Function Attrs: inlinehint mustprogress nounwind optsize uwtable
define linkonce_odr hidden void @_ZN8nanobind6dlpack8dltensorC2Ev(ptr noundef nonnull align 8 dereferenceable(48) %0) unnamed_addr #11 comdat align 2 {
  %2 = alloca ptr, align 8
  store ptr %0, ptr %2, align 8, !tbaa !141
  %3 = load ptr, ptr %2, align 8
  %4 = getelementptr inbounds nuw %"struct.nanobind::dlpack::dltensor", ptr %3, i32 0, i32 0
  store ptr null, ptr %4, align 8, !tbaa !143
  %5 = getelementptr inbounds nuw %"struct.nanobind::dlpack::dltensor", ptr %3, i32 0, i32 1
  call void @_ZN8nanobind6dlpack6deviceC2Ev(ptr noundef nonnull align 4 dereferenceable(8) %5) #23
  %6 = getelementptr inbounds nuw %"struct.nanobind::dlpack::dltensor", ptr %3, i32 0, i32 2
  store i32 0, ptr %6, align 8, !tbaa !144
  %7 = getelementptr inbounds nuw %"struct.nanobind::dlpack::dltensor", ptr %3, i32 0, i32 3
  call void @_ZN8nanobind6dlpack5dtypeC2Ev(ptr noundef nonnull align 2 dereferenceable(4) %7) #23
  %8 = getelementptr inbounds nuw %"struct.nanobind::dlpack::dltensor", ptr %3, i32 0, i32 4
  store ptr null, ptr %8, align 8, !tbaa !145
  %9 = getelementptr inbounds nuw %"struct.nanobind::dlpack::dltensor", ptr %3, i32 0, i32 5
  store ptr null, ptr %9, align 8, !tbaa !146
  %10 = getelementptr inbounds nuw %"struct.nanobind::dlpack::dltensor", ptr %3, i32 0, i32 6
  store i64 0, ptr %10, align 8, !tbaa !147
  ret void
}

; Function Attrs: inlinehint mustprogress nounwind optsize uwtable
define linkonce_odr hidden void @_ZN8nanobind6detail11type_casterINS_7ndarrayIJNS_6device3cpuEEEEiEC2Ev(ptr noundef nonnull align 8 dereferenceable(56) %0) unnamed_addr #11 comdat align 2 {
  %2 = alloca ptr, align 8
  store ptr %0, ptr %2, align 8, !tbaa !468
  %3 = load ptr, ptr %2, align 8
  %4 = getelementptr inbounds nuw %"struct.nanobind::detail::type_caster.344", ptr %3, i32 0, i32 0
  call void @_ZN8nanobind7ndarrayIJNS_6device3cpuEEEC2Ev(ptr noundef nonnull align 8 dereferenceable(56) %4) #23
  ret void
}

; Function Attrs: inlinehint mustprogress nounwind optsize uwtable
define linkonce_odr hidden void @_ZN8nanobind6detail5tupleIJNS0_11type_casterINS_7ndarrayIJNS_6device3cpuEEEEiEEEED2Ev(ptr noundef nonnull align 8 dereferenceable(56) %0) unnamed_addr #11 comdat align 2 {
  %2 = alloca ptr, align 8
  store ptr %0, ptr %2, align 8, !tbaa !466
  %3 = load ptr, ptr %2, align 8
  %4 = getelementptr inbounds nuw %"struct.nanobind::detail::tuple.343", ptr %3, i32 0, i32 0
  call void @_ZN8nanobind6detail11type_casterINS_7ndarrayIJNS_6device3cpuEEEEiED2Ev(ptr noundef nonnull align 8 dereferenceable(56) %4) #23
  ret void
}

; Function Attrs: mustprogress nounwind optsize uwtable
define linkonce_odr hidden void @_ZN8nanobind7ndarrayIJNS_6device3cpuEEED2Ev(ptr noundef nonnull align 8 dereferenceable(56) %0) unnamed_addr #8 comdat align 2 {
  %2 = alloca ptr, align 8
  store ptr %0, ptr %2, align 8, !tbaa !470
  %3 = load ptr, ptr %2, align 8
  %4 = getelementptr inbounds nuw %"class.nanobind::ndarray.345", ptr %3, i32 0, i32 0
  %5 = load ptr, ptr %4, align 8, !tbaa !472
  call void @_ZN8nanobind6detail15ndarray_dec_refEPNS0_14ndarray_handleE(ptr noundef %5) #23
  ret void
}

; Function Attrs: alwaysinline mustprogress nounwind optsize uwtable
define linkonce_odr hidden noundef ptr @_ZNK8nanobind6handle3ptrEv(ptr noundef nonnull align 8 dereferenceable(8) %0) #5 comdat align 2 {
  %2 = alloca ptr, align 8
  store ptr %0, ptr %2, align 8, !tbaa !12
  %3 = load ptr, ptr %2, align 8
  %4 = getelementptr inbounds nuw %"class.nanobind::handle", ptr %3, i32 0, i32 0
  %5 = load ptr, ptr %4, align 8, !tbaa !14
  ret ptr %5
}

; Function Attrs: mustprogress nounwind optsize uwtable
define linkonce_odr hidden ptr @_ZN8nanobind6detail11type_casterIciE8from_cppEPKcNS_9rv_policyEPNS0_12cleanup_listE(ptr noundef %0, i32 noundef %1, ptr noundef %2) #8 comdat align 2 personality ptr @__gxx_personality_v0 {
  %4 = alloca %"class.nanobind::handle", align 8
  %5 = alloca ptr, align 8
  %6 = alloca i32, align 4
  %7 = alloca ptr, align 8
  %8 = alloca ptr, align 8
  store ptr %0, ptr %5, align 8, !tbaa !27
  store i32 %1, ptr %6, align 4, !tbaa !18
  store ptr %2, ptr %7, align 8, !tbaa !127
  %9 = load ptr, ptr %5, align 8, !tbaa !27
  %10 = icmp eq ptr %9, null
  br i1 %10, label %11, label %15

11:                                               ; preds = %3
  call void @llvm.lifetime.start.p0(i64 8, ptr %8) #22
  store ptr @_Py_NoneStruct, ptr %8, align 8, !tbaa !3
  %12 = load ptr, ptr %8, align 8, !tbaa !3
  call void @_ZL10_Py_INCREFP7_object(ptr noundef %12) #21
  %13 = load ptr, ptr %8, align 8, !tbaa !3
  invoke void @_ZN8nanobind6handleC2EPK7_object(ptr noundef nonnull align 8 dereferenceable(8) %4, ptr noundef %13) #21
          to label %14 unwind label %23

14:                                               ; preds = %11
  call void @llvm.lifetime.end.p0(i64 8, ptr %8) #22
  br label %20

15:                                               ; preds = %3
  %16 = load ptr, ptr %5, align 8, !tbaa !27
  %17 = invoke ptr @PyUnicode_FromString(ptr noundef %16) #21
          to label %18 unwind label %23

18:                                               ; preds = %15
  invoke void @_ZN8nanobind6handleC2EPK7_object(ptr noundef nonnull align 8 dereferenceable(8) %4, ptr noundef %17) #21
          to label %19 unwind label %23

19:                                               ; preds = %18
  br label %20

20:                                               ; preds = %19, %14
  %21 = getelementptr inbounds nuw %"class.nanobind::handle", ptr %4, i32 0, i32 0
  %22 = load ptr, ptr %21, align 8
  ret ptr %22

23:                                               ; preds = %18, %15, %11
  %24 = landingpad { ptr, i32 }
          catch ptr null
  %25 = extractvalue { ptr, i32 } %24, 0
  call void @__clang_call_terminate(ptr %25) #24
  unreachable
}

; Function Attrs: inlinehint mustprogress nounwind optsize uwtable
define internal noundef ptr @"_ZZL30nanobind_init_test_ndarray_extRN8nanobind7module_EENK4$_34clENS_7ndarrayIJNS_6device3cpuEEEE"(ptr noundef nonnull align 1 dereferenceable(1) %0, ptr noundef %1) #11 align 2 {
  %3 = alloca ptr, align 8
  %4 = alloca ptr, align 8
  store ptr %0, ptr %3, align 8, !tbaa !29
  store ptr %1, ptr %4, align 8, !tbaa !470
  ret ptr @.str.89
}

; Function Attrs: mustprogress nounwind optsize uwtable
define linkonce_odr hidden void @_ZN8nanobind7ndarrayIJNS_6device3cpuEEEC2EOS3_(ptr noundef nonnull align 8 dereferenceable(56) %0, ptr noundef nonnull align 8 dereferenceable(56) %1) unnamed_addr #8 comdat align 2 {
  %3 = alloca ptr, align 8
  %4 = alloca ptr, align 8
  %5 = alloca %"struct.nanobind::dlpack::dltensor", align 8
  store ptr %0, ptr %3, align 8, !tbaa !470
  store ptr %1, ptr %4, align 8, !tbaa !470
  %6 = load ptr, ptr %3, align 8
  %7 = getelementptr inbounds nuw %"class.nanobind::ndarray.345", ptr %6, i32 0, i32 0
  %8 = load ptr, ptr %4, align 8, !tbaa !470
  %9 = getelementptr inbounds nuw %"class.nanobind::ndarray.345", ptr %8, i32 0, i32 0
  %10 = load ptr, ptr %9, align 8, !tbaa !472
  store ptr %10, ptr %7, align 8, !tbaa !472
  %11 = getelementptr inbounds nuw %"class.nanobind::ndarray.345", ptr %6, i32 0, i32 1
  %12 = load ptr, ptr %4, align 8, !tbaa !470
  %13 = getelementptr inbounds nuw %"class.nanobind::ndarray.345", ptr %12, i32 0, i32 1
  call void @llvm.memcpy.p0.p0.i64(ptr align 8 %11, ptr align 8 %13, i64 48, i1 false), !tbaa.struct !159
  %14 = load ptr, ptr %4, align 8, !tbaa !470
  %15 = getelementptr inbounds nuw %"class.nanobind::ndarray.345", ptr %14, i32 0, i32 0
  store ptr null, ptr %15, align 8, !tbaa !472
  call void @llvm.lifetime.start.p0(i64 48, ptr %5) #22
  call void @llvm.memset.p0.i64(ptr align 8 %5, i8 0, i64 48, i1 false)
  call void @_ZN8nanobind6dlpack8dltensorC2Ev(ptr noundef nonnull align 8 dereferenceable(48) %5) #23
  %16 = load ptr, ptr %4, align 8, !tbaa !470
  %17 = getelementptr inbounds nuw %"class.nanobind::ndarray.345", ptr %16, i32 0, i32 1
  call void @llvm.memcpy.p0.p0.i64(ptr align 8 %17, ptr align 8 %5, i64 48, i1 false), !tbaa.struct !159
  call void @llvm.lifetime.end.p0(i64 48, ptr %5) #22
  ret void
}

; Function Attrs: mustprogress nounwind optsize uwtable
define linkonce_odr hidden noundef nonnull align 8 dereferenceable(56) ptr @_ZN8nanobind6detail11type_casterINS_7ndarrayIJNS_6device3cpuEEEEiEcvOS5_Ev(ptr noundef nonnull align 8 dereferenceable(56) %0) #8 comdat align 2 {
  %2 = alloca ptr, align 8
  store ptr %0, ptr %2, align 8, !tbaa !468
  %3 = load ptr, ptr %2, align 8
  %4 = getelementptr inbounds nuw %"struct.nanobind::detail::type_caster.344", ptr %3, i32 0, i32 0
  ret ptr %4
}

; Function Attrs: alwaysinline mustprogress nounwind optsize uwtable
define linkonce_odr hidden void @_ZN8nanobind6handleC2EPK7_object(ptr noundef nonnull align 8 dereferenceable(8) %0, ptr noundef %1) unnamed_addr #5 comdat align 2 {
  %3 = alloca ptr, align 8
  %4 = alloca ptr, align 8
  store ptr %0, ptr %3, align 8, !tbaa !12
  store ptr %1, ptr %4, align 8, !tbaa !3
  %5 = load ptr, ptr %3, align 8
  %6 = getelementptr inbounds nuw %"class.nanobind::handle", ptr %5, i32 0, i32 0
  %7 = load ptr, ptr %4, align 8, !tbaa !3
  store ptr %7, ptr %6, align 8, !tbaa !14
  ret void
}

; Function Attrs: alwaysinline mustprogress nounwind optsize uwtable
define linkonce_odr hidden noundef nonnull align 8 dereferenceable(56) ptr @_ZN8nanobind6detail5tupleIJNS0_11type_casterINS_7ndarrayIJNS_6device3cpuEEEEiEEEE3getILm0EEERDav(ptr noundef nonnull align 8 dereferenceable(56) %0) #5 comdat align 2 {
  %2 = alloca ptr, align 8
  store ptr %0, ptr %2, align 8, !tbaa !466
  %3 = load ptr, ptr %2, align 8
  %4 = getelementptr inbounds nuw %"struct.nanobind::detail::tuple.343", ptr %3, i32 0, i32 0
  ret ptr %4
}

; Function Attrs: mustprogress nounwind optsize uwtable
define linkonce_odr hidden void @_ZN8nanobind6detail5tupleIJNS0_11type_casterINS_7ndarrayIJNS_6device3cpuEEEEiEEEEC2Ev(ptr noundef nonnull align 8 dereferenceable(56) %0) unnamed_addr #8 comdat align 2 {
  %2 = alloca ptr, align 8
  store ptr %0, ptr %2, align 8, !tbaa !466
  %3 = load ptr, ptr %2, align 8
  %4 = getelementptr inbounds nuw %"struct.nanobind::detail::tuple.343", ptr %3, i32 0, i32 0
  call void @_ZN8nanobind6detail11type_casterINS_7ndarrayIJNS_6device3cpuEEEEiEC2Ev(ptr noundef nonnull align 8 dereferenceable(56) %4) #23
  ret void
}

; Function Attrs: alwaysinline mustprogress optsize uwtable
define internal noundef ptr @"_ZZN8nanobind6detail11func_createILb0ELb1EZL30nanobind_init_test_ndarray_extRNS_7module_EE4$_34PKcJNS_7ndarrayIJNS_6device3cpuEEEEEJLm0EEJNS_5scopeENS_4nameEEEEP7_objectOT1_PFT2_DpT3_ESt16integer_sequenceImJXspT4_EEEDpRKT5_ENKUlPvPSE_PhNS_9rv_policyEPNS0_12cleanup_listEE_clESS_ST_SU_SV_SX_"(ptr noundef nonnull align 1 dereferenceable(1) %0, ptr noundef %1, ptr noundef %2, ptr noundef %3, i32 noundef %4, ptr noundef %5) #3 align 2 personality ptr @__gxx_personality_v0 {
  %7 = alloca ptr, align 8
  %8 = alloca ptr, align 8
  %9 = alloca ptr, align 8
  %10 = alloca ptr, align 8
  %11 = alloca ptr, align 8
  %12 = alloca i32, align 4
  %13 = alloca ptr, align 8
  %14 = alloca ptr, align 8
  %15 = alloca %"struct.nanobind::detail::tuple.343", align 8
  %16 = alloca ptr, align 8
  %17 = alloca i32, align 4
  %18 = alloca %"class.nanobind::handle", align 8
  %19 = alloca i32, align 4
  %20 = alloca ptr, align 8
  %21 = alloca %"class.nanobind::handle", align 8
  %22 = alloca %"class.nanobind::ndarray.345", align 8
  store ptr %0, ptr %8, align 8, !tbaa !29
  store ptr %1, ptr %9, align 8, !tbaa !29
  store ptr %2, ptr %10, align 8, !tbaa !125
  store ptr %3, ptr %11, align 8, !tbaa !27
  store i32 %4, ptr %12, align 4, !tbaa !18
  store ptr %5, ptr %13, align 8, !tbaa !127
  call void @llvm.lifetime.start.p0(i64 8, ptr %14) #22
  %23 = load ptr, ptr %9, align 8, !tbaa !29
  store ptr %23, ptr %14, align 8, !tbaa !462
  call void @llvm.lifetime.start.p0(i64 56, ptr %15) #22
  call void @_ZN8nanobind6detail5tupleIJNS0_11type_casterINS_7ndarrayIJNS_6device3cpuEEEEiEEEEC2Ev(ptr noundef nonnull align 8 dereferenceable(56) %15) #23
  %24 = invoke noundef nonnull align 8 dereferenceable(56) ptr @_ZN8nanobind6detail5tupleIJNS0_11type_casterINS_7ndarrayIJNS_6device3cpuEEEEiEEEE3getILm0EEERDav(ptr noundef nonnull align 8 dereferenceable(56) %15) #21
          to label %25 unwind label %38

25:                                               ; preds = %6
  %26 = load ptr, ptr %10, align 8, !tbaa !125
  %27 = getelementptr inbounds nuw ptr, ptr %26, i64 0
  %28 = load ptr, ptr %27, align 8, !tbaa !3
  invoke void @_ZN8nanobind6handleC2EPK7_object(ptr noundef nonnull align 8 dereferenceable(8) %18, ptr noundef %28) #21
          to label %29 unwind label %38

29:                                               ; preds = %25
  %30 = load ptr, ptr %11, align 8, !tbaa !27
  %31 = getelementptr inbounds nuw i8, ptr %30, i64 0
  %32 = load i8, ptr %31, align 1, !tbaa !20
  %33 = load ptr, ptr %13, align 8, !tbaa !127
  %34 = getelementptr inbounds nuw %"class.nanobind::handle", ptr %18, i32 0, i32 0
  %35 = load ptr, ptr %34, align 8
  %36 = call noundef zeroext i1 @_ZN8nanobind6detail11type_casterINS_7ndarrayIJNS_6device3cpuEEEEiE11from_pythonENS_6handleEhPNS0_12cleanup_listE(ptr noundef nonnull align 8 dereferenceable(56) %24, ptr %35, i8 noundef zeroext %32, ptr noundef %33) #23
  br i1 %36, label %42, label %37

37:                                               ; preds = %29
  store ptr inttoptr (i64 1 to ptr), ptr %7, align 8
  store i32 1, ptr %19, align 4
  br label %65

38:                                               ; preds = %25, %6
  %39 = landingpad { ptr, i32 }
          cleanup
  %40 = extractvalue { ptr, i32 } %39, 0
  store ptr %40, ptr %16, align 8
  %41 = extractvalue { ptr, i32 } %39, 1
  store i32 %41, ptr %17, align 4
  br label %67

42:                                               ; preds = %29
  call void @llvm.lifetime.start.p0(i64 8, ptr %20) #22
  call void @llvm.lifetime.start.p0(i64 8, ptr %21) #22
  %43 = load ptr, ptr %14, align 8, !tbaa !462
  %44 = invoke noundef nonnull align 8 dereferenceable(56) ptr @_ZN8nanobind6detail5tupleIJNS0_11type_casterINS_7ndarrayIJNS_6device3cpuEEEEiEEEE3getILm0EEERDav(ptr noundef nonnull align 8 dereferenceable(56) %15) #21
          to label %45 unwind label %56

45:                                               ; preds = %42
  %46 = invoke noundef nonnull align 8 dereferenceable(56) ptr @_ZN8nanobind6detail11type_casterINS_7ndarrayIJNS_6device3cpuEEEEiEcvOS5_Ev(ptr noundef nonnull align 8 dereferenceable(56) %44) #21
          to label %47 unwind label %56

47:                                               ; preds = %45
  call void @_ZN8nanobind7ndarrayIJNS_6device3cpuEEEC2EOS3_(ptr noundef nonnull align 8 dereferenceable(56) %22, ptr noundef nonnull align 8 dereferenceable(56) %46) #23
  %48 = invoke noundef ptr @"_ZZL30nanobind_init_test_ndarray_extRN8nanobind7module_EENK4$_34clENS_7ndarrayIJNS_6device3cpuEEEE"(ptr noundef nonnull align 1 dereferenceable(1) %43, ptr noundef %22) #21
          to label %49 unwind label %60

49:                                               ; preds = %47
  %50 = load i32, ptr %12, align 4, !tbaa !18
  %51 = load ptr, ptr %13, align 8, !tbaa !127
  %52 = call ptr @_ZN8nanobind6detail11type_casterIciE8from_cppEPKcNS_9rv_policyEPNS0_12cleanup_listE(ptr noundef %48, i32 noundef %50, ptr noundef %51) #23
  %53 = getelementptr inbounds nuw %"class.nanobind::handle", ptr %21, i32 0, i32 0
  store ptr %52, ptr %53, align 8
  %54 = call noundef ptr @_ZNK8nanobind6handle3ptrEv(ptr noundef nonnull align 8 dereferenceable(8) %21) #21
  store ptr %54, ptr %20, align 8, !tbaa !3
  call void @_ZN8nanobind7ndarrayIJNS_6device3cpuEEED2Ev(ptr noundef nonnull align 8 dereferenceable(56) %22) #23
  call void @llvm.lifetime.end.p0(i64 8, ptr %21) #22
  %55 = load ptr, ptr %20, align 8, !tbaa !3
  store ptr %55, ptr %7, align 8
  store i32 1, ptr %19, align 4
  call void @llvm.lifetime.end.p0(i64 8, ptr %20) #22
  br label %65

56:                                               ; preds = %45, %42
  %57 = landingpad { ptr, i32 }
          cleanup
  %58 = extractvalue { ptr, i32 } %57, 0
  store ptr %58, ptr %16, align 8
  %59 = extractvalue { ptr, i32 } %57, 1
  store i32 %59, ptr %17, align 4
  br label %64

60:                                               ; preds = %47
  %61 = landingpad { ptr, i32 }
          cleanup
  %62 = extractvalue { ptr, i32 } %61, 0
  store ptr %62, ptr %16, align 8
  %63 = extractvalue { ptr, i32 } %61, 1
  store i32 %63, ptr %17, align 4
  call void @_ZN8nanobind7ndarrayIJNS_6device3cpuEEED2Ev(ptr noundef nonnull align 8 dereferenceable(56) %22) #23
  br label %64

64:                                               ; preds = %60, %56
  call void @llvm.lifetime.end.p0(i64 8, ptr %21) #22
  call void @llvm.lifetime.end.p0(i64 8, ptr %20) #22
  br label %67

65:                                               ; preds = %49, %37
  call void @_ZN8nanobind6detail5tupleIJNS0_11type_casterINS_7ndarrayIJNS_6device3cpuEEEEiEEEED2Ev(ptr noundef nonnull align 8 dereferenceable(56) %15) #23
  call void @llvm.lifetime.end.p0(i64 56, ptr %15) #22
  call void @llvm.lifetime.end.p0(i64 8, ptr %14) #22
  %66 = load ptr, ptr %7, align 8
  ret ptr %66

67:                                               ; preds = %64, %38
  call void @_ZN8nanobind6detail5tupleIJNS0_11type_casterINS_7ndarrayIJNS_6device3cpuEEEEiEEEED2Ev(ptr noundef nonnull align 8 dereferenceable(56) %15) #23
  call void @llvm.lifetime.end.p0(i64 56, ptr %15) #22
  call void @llvm.lifetime.end.p0(i64 8, ptr %14) #22
  br label %68

68:                                               ; preds = %67
  %69 = load ptr, ptr %16, align 8
  %70 = load i32, ptr %17, align 4
  %71 = insertvalue { ptr, i32 } poison, ptr %69, 0
  %72 = insertvalue { ptr, i32 } %71, i32 %70, 1
  resume { ptr, i32 } %72
}

; Function Attrs: inlinehint mustprogress optsize uwtable
define internal noundef ptr @"_ZZN8nanobind6detail11func_createILb0ELb1EZL30nanobind_init_test_ndarray_extRNS_7module_EE4$_34PKcJNS_7ndarrayIJNS_6device3cpuEEEEEJLm0EEJNS_5scopeENS_4nameEEEEP7_objectOT1_PFT2_DpT3_ESt16integer_sequenceImJXspT4_EEEDpRKT5_ENUlPvPSE_PhNS_9rv_policyEPNS0_12cleanup_listEE_8__invokeESS_ST_SU_SV_SX_"(ptr noundef %0, ptr noundef %1, ptr noundef %2, i32 noundef %3, ptr noundef %4) #9 align 2 {
  %6 = alloca ptr, align 8
  %7 = alloca ptr, align 8
  %8 = alloca ptr, align 8
  %9 = alloca i32, align 4
  %10 = alloca ptr, align 8
  %11 = alloca %class.anon.341, align 1
  store ptr %0, ptr %6, align 8, !tbaa !29
  store ptr %1, ptr %7, align 8, !tbaa !125
  store ptr %2, ptr %8, align 8, !tbaa !27
  store i32 %3, ptr %9, align 4, !tbaa !18
  store ptr %4, ptr %10, align 8, !tbaa !127
  %12 = load ptr, ptr %6, align 8, !tbaa !29
  %13 = load ptr, ptr %7, align 8, !tbaa !125
  %14 = load ptr, ptr %8, align 8, !tbaa !27
  %15 = load i32, ptr %9, align 4, !tbaa !18
  %16 = load ptr, ptr %10, align 8, !tbaa !127
  %17 = call noundef ptr @"_ZZN8nanobind6detail11func_createILb0ELb1EZL30nanobind_init_test_ndarray_extRNS_7module_EE4$_34PKcJNS_7ndarrayIJNS_6device3cpuEEEEEJLm0EEJNS_5scopeENS_4nameEEEEP7_objectOT1_PFT2_DpT3_ESt16integer_sequenceImJXspT4_EEEDpRKT5_ENKUlPvPSE_PhNS_9rv_policyEPNS0_12cleanup_listEE_clESS_ST_SU_SV_SX_"(ptr noundef nonnull align 1 dereferenceable(1) %11, ptr noundef %12, ptr noundef %13, ptr noundef %14, i32 noundef %15, ptr noundef %16) #21
  ret ptr %17
}